target datalayout = "e-m:e-p270:32:32-p271:32:32-p272:64:64-i64:64-i128:128-f80:128-n8:16:32:64-S128"
target triple = "x86_64-pc-linux-gnu"

%class.relocInfo = type { i16 }
%class.CodeSection = type { ptr, ptr, ptr, ptr, ptr, ptr, ptr, ptr, i8, i8, i32, i8, ptr }

; Function Attrs: mustprogress nounwind uwtable
define linkonce_odr hidden noundef zeroext i16 @_Z12checked_castItiET_T0_(i32 noundef %0) #1 comdat {
  %2 = alloca i32, align 4
  %3 = alloca i16, align 2
  store i32 %0, ptr %2, align 4
  %4 = load i32, ptr %2, align 4
  %5 = trunc i32 %4 to i16
  store i16 %5, ptr %3, align 2
  %6 = load i16, ptr %3, align 2
  ret i16 %6
}

; Function Attrs: mustprogress nounwind uwtable
define linkonce_odr hidden void @_ZN9relocInfoC2ENS_9relocTypeENS_12RawBitsTokenEi(ptr noundef nonnull align 2 dereferenceable(2) %0, i32 noundef %1, i32 noundef %2, i32 noundef %3) unnamed_addr #1 comdat align 2 {
  %5 = alloca ptr, align 8
  %6 = alloca i32, align 4
  %7 = alloca i32, align 4
  %8 = alloca i32, align 4
  store ptr %0, ptr %5, align 8
  store i32 %1, ptr %6, align 4
  store i32 %2, ptr %7, align 4
  store i32 %3, ptr %8, align 4
  %9 = load ptr, ptr %5, align 8
  %10 = getelementptr inbounds %class.relocInfo, ptr %9, i32 0, i32 0
  %11 = load i32, ptr %6, align 4
  %12 = shl i32 %11, 11
  %13 = load i32, ptr %8, align 4
  %14 = add nsw i32 %12, %13
  %15 = call noundef zeroext i16 @_Z12checked_castItiET_T0_(i32 noundef %14)
  store i16 %15, ptr %10, align 2
  ret void
}

; Function Attrs: mustprogress nounwind uwtable
define linkonce_odr hidden i16 @_ZN9relocInfo11prefix_infoEi(i32 noundef %0) #1 comdat align 2 {
  %2 = alloca %class.relocInfo, align 2
  %3 = alloca i32, align 4
  store i32 %0, ptr %3, align 4
  %4 = load i32, ptr %3, align 4
  %5 = or i32 1024, %4
  call void @_ZN9relocInfoC2ENS_9relocTypeENS_12RawBitsTokenEi(ptr noundef nonnull align 2 dereferenceable(2) %2, i32 noundef 15, i32 noundef 0, i32 noundef %5)
  %6 = getelementptr inbounds %class.relocInfo, ptr %2, i32 0, i32 0
  %7 = load i16, ptr %6, align 2
  ret i16 %7
}

; Function Attrs: mustprogress nounwind uwtable
define linkonce_odr hidden i16 @_ZN9relocInfo19immediate_relocInfoEi(i32 noundef %0) #1 comdat align 2 {
  %2 = alloca %class.relocInfo, align 2
  %3 = alloca i32, align 4
  store i32 %0, ptr %3, align 4
  %4 = load i32, ptr %3, align 4
  call void @_ZN9relocInfoC2ENS_9relocTypeENS_12RawBitsTokenEi(ptr noundef nonnull align 2 dereferenceable(2) %2, i32 noundef 15, i32 noundef 0, i32 noundef %4)
  %5 = getelementptr inbounds %class.relocInfo, ptr %2, i32 0, i32 0
  %6 = load i16, ptr %5, align 2
  ret i16 %6
}

; Function Attrs: mustprogress nounwind uwtable
define linkonce_odr hidden noundef zeroext i1 @_ZN9relocInfo19fits_into_immediateEi(i32 noundef %0) #1 comdat align 2 {
  %2 = alloca i32, align 4
  store i32 %0, ptr %2, align 4
  %3 = load i32, ptr %2, align 4
  %4 = icmp sge i32 %3, 0
  br i1 %4, label %5, label %8

5:                                                ; preds = %1
  %6 = load i32, ptr %2, align 4
  %7 = icmp slt i32 %6, 1024
  br label %8

8:                                                ; preds = %5, %1
  %9 = phi i1 [ false, %1 ], [ %7, %5 ]
  ret i1 %9
}

; Function Attrs: mustprogress nounwind uwtable
define linkonce_odr hidden noundef i32 @_Z12checked_castIilET_T0_(i64 noundef %0) #1 comdat {
  %2 = alloca i64, align 8
  %3 = alloca i32, align 4
  store i64 %0, ptr %2, align 8
  %4 = load i64, ptr %2, align 8
  %5 = trunc i64 %4 to i32
  store i32 %5, ptr %3, align 4
  %6 = load i32, ptr %3, align 4
  ret i32 %6
}

; Function Attrs: mustprogress nounwind uwtable
define hidden noundef ptr @_ZN9relocInfo13finish_prefixEPs(ptr noundef nonnull align 2 dereferenceable(2) %0, ptr noundef %1) #1 align 2 {
  %3 = alloca ptr, align 8
  %4 = alloca ptr, align 8
  %5 = alloca ptr, align 8
  %6 = alloca ptr, align 8
  %7 = alloca i32, align 4
  %8 = alloca %class.relocInfo, align 2
  %9 = alloca %class.relocInfo, align 2
  store ptr %0, ptr %4, align 8
  store ptr %1, ptr %5, align 8
  %10 = load ptr, ptr %4, align 8
  %11 = getelementptr inbounds %class.relocInfo, ptr %10, i64 1
  store ptr %11, ptr %6, align 8
  %12 = load ptr, ptr %5, align 8
  %13 = load ptr, ptr %6, align 8
  %14 = ptrtoint ptr %12 to i64
  %15 = ptrtoint ptr %13 to i64
  %16 = sub i64 %14, %15
  %17 = sdiv exact i64 %16, 2
  %18 = call noundef i32 @_Z12checked_castIilET_T0_(i64 noundef %17)
  store i32 %18, ptr %7, align 4
  %19 = load i32, ptr %7, align 4
  %20 = icmp eq i32 %19, 0
  br i1 %20, label %21, label %22

21:                                               ; preds = %2
  store ptr %10, ptr %3, align 8
  br label %44

22:                                               ; preds = %2
  %23 = load i32, ptr %7, align 4
  %24 = icmp eq i32 %23, 1
  br i1 %24, label %25, label %39

25:                                               ; preds = %22
  %26 = load ptr, ptr %6, align 8
  %27 = getelementptr inbounds i16, ptr %26, i64 0
  %28 = load i16, ptr %27, align 2
  %29 = sext i16 %28 to i32
  %30 = call noundef zeroext i1 @_ZN9relocInfo19fits_into_immediateEi(i32 noundef %29)
  br i1 %30, label %31, label %39

31:                                               ; preds = %25
  %32 = load ptr, ptr %6, align 8
  %33 = getelementptr inbounds i16, ptr %32, i64 0
  %34 = load i16, ptr %33, align 2
  %35 = sext i16 %34 to i32
  %36 = call i16 @_ZN9relocInfo19immediate_relocInfoEi(i32 noundef %35)
  %37 = getelementptr inbounds %class.relocInfo, ptr %8, i32 0, i32 0
  store i16 %36, ptr %37, align 2
  call void @llvm.memcpy.p0.p0.i64(ptr align 2 %10, ptr align 2 %8, i64 2, i1 false)
  %38 = getelementptr inbounds %class.relocInfo, ptr %10, i64 1
  store ptr %38, ptr %3, align 8
  br label %44

39:                                               ; preds = %25, %22
  %40 = load i32, ptr %7, align 4
  %41 = call i16 @_ZN9relocInfo11prefix_infoEi(i32 noundef %40)
  %42 = getelementptr inbounds %class.relocInfo, ptr %9, i32 0, i32 0
  store i16 %41, ptr %42, align 2
  call void @llvm.memcpy.p0.p0.i64(ptr align 2 %10, ptr align 2 %9, i64 2, i1 false)
  %43 = load ptr, ptr %5, align 8
  store ptr %43, ptr %3, align 8
  br label %44

44:                                               ; preds = %39, %31, %21
  %45 = load ptr, ptr %3, align 8
  ret ptr %45
}

; Function Attrs: mustprogress nounwind uwtable
define linkonce_odr hidden noundef ptr @_ZNK11CodeSection8locs_endEv(ptr noundef nonnull align 8 dereferenceable(88) %0) #1 comdat align 2 {
  %2 = alloca ptr, align 8
  store ptr %0, ptr %2, align 8
  %3 = load ptr, ptr %2, align 8
  %4 = getelementptr inbounds %class.CodeSection, ptr %3, i32 0, i32 5
  %5 = load ptr, ptr %4, align 8
  ret ptr %5
}

; Function Attrs: mustprogress nounwind uwtable
define linkonce_odr hidden void @_ZN11CodeSection12set_locs_endEP9relocInfo(ptr noundef nonnull align 8 dereferenceable(88) %0, ptr noundef %1) #1 comdat align 2 {
  %3 = alloca ptr, align 8
  %4 = alloca ptr, align 8
  store ptr %0, ptr %3, align 8
  store ptr %1, ptr %4, align 8
  %5 = load ptr, ptr %3, align 8
  %6 = load ptr, ptr %4, align 8
  %7 = getelementptr inbounds %class.CodeSection, ptr %5, i32 0, i32 5
  store ptr %6, ptr %7, align 8
  ret void
}

; Function Attrs: mustprogress nounwind uwtable
define hidden void @_ZN9relocInfo10initializeEP11CodeSectionP10Relocation(ptr noundef nonnull align 2 dereferenceable(2) %0, ptr noundef %1, ptr noundef %2) #1 align 2 {
  %4 = alloca ptr, align 8
  %5 = alloca ptr, align 8
  %6 = alloca ptr, align 8
  %7 = alloca ptr, align 8
  %8 = alloca ptr, align 8
  %9 = alloca %class.relocInfo, align 2
  store ptr %0, ptr %4, align 8
  store ptr %1, ptr %5, align 8
  store ptr %2, ptr %6, align 8
  %10 = load ptr, ptr %4, align 8
  %11 = getelementptr inbounds %class.relocInfo, ptr %10, i64 1
  store ptr %11, ptr %7, align 8
  %12 = load ptr, ptr %5, align 8
  %13 = load ptr, ptr %7, align 8
  call void @_ZN11CodeSection12set_locs_endEP9relocInfo(ptr noundef nonnull align 8 dereferenceable(88) %12, ptr noundef %13)
  %14 = load ptr, ptr %6, align 8
  %15 = load ptr, ptr %5, align 8
  %16 = load ptr, ptr %14, align 8
  %17 = getelementptr inbounds ptr, ptr %16, i64 0
  %18 = load ptr, ptr %17, align 8
  call void %18(ptr noundef nonnull align 8 dereferenceable(20) %14, ptr noundef %15)
  %19 = load ptr, ptr %5, align 8
  %20 = call noundef ptr @_ZNK11CodeSection8locs_endEv(ptr noundef nonnull align 8 dereferenceable(88) %19)
  store ptr %20, ptr %8, align 8
  %21 = load ptr, ptr %8, align 8
  %22 = load ptr, ptr %7, align 8
  %23 = icmp ugt ptr %21, %22
  br i1 %23, label %24, label %31

24:                                               ; preds = %3
  call void @llvm.memcpy.p0.p0.i64(ptr align 2 %9, ptr align 2 %10, i64 2, i1 false)
  %25 = load ptr, ptr %8, align 8
  %26 = call noundef ptr @_ZN9relocInfo13finish_prefixEPs(ptr noundef nonnull align 2 dereferenceable(2) %10, ptr noundef %25)
  store ptr %26, ptr %8, align 8
  %27 = load ptr, ptr %8, align 8
  call void @llvm.memcpy.p0.p0.i64(ptr align 2 %27, ptr align 2 %9, i64 2, i1 false)
  %28 = load ptr, ptr %5, align 8
  %29 = load ptr, ptr %8, align 8
  %30 = getelementptr inbounds %class.relocInfo, ptr %29, i64 1
  call void @_ZN11CodeSection12set_locs_endEP9relocInfo(ptr noundef nonnull align 8 dereferenceable(88) %28, ptr noundef %30)
  br label %31

31:                                               ; preds = %24, %3
  ret void
}