; Function Attrs: mustprogress nounwind uwtable
define hidden void @_ZN9relocInfo10initializeEP11CodeSectionP10Relocation(ptr noundef nonnull align 2 dereferenceable(2) %0, ptr noundef %1, ptr noundef %2) local_unnamed_addr #0 align 2 {
  %4 = getelementptr inbounds i8, ptr %0, i64 2
  %5 = getelementptr inbounds i8, ptr %1, i64 40
  store ptr %4, ptr %5, align 8
  %6 = load ptr, ptr %2, align 8
  %7 = load ptr, ptr %6, align 8
  tail call void %7(ptr noundef nonnull align 8 dereferenceable(20) %2, ptr noundef nonnull %1) #19
  %8 = load ptr, ptr %5, align 8
  %9 = icmp ugt ptr %8, %4
  br i1 %9, label %10, label %24

10:                                               ; preds = %3
  %.sroa.0.0.copyload = load i16, ptr %0, align 2
  %11 = ptrtoint ptr %8 to i64
  %12 = ptrtoint ptr %4 to i64
  %13 = sub i64 %11, %12
  %14 = lshr exact i64 %13, 1
  %15 = trunc i64 %14 to i32
  switch i32 %15, label %.split.i [
    i32 0, label %_ZN9relocInfo13finish_prefixEPs.exit
    i32 1, label %19
  ]

.split.i:                                         ; preds = %10
  %16 = trunc i64 %14 to i16
  %17 = or i16 %16, 1024
  %18 = add i16 %17, 30720
  br label %.sink.split.i

19:                                               ; preds = %10
  %20 = load i16, ptr %4, align 2
  %21 = icmp ult i16 %20, 1024
  %22 = or disjoint i16 %20, 30720
  %spec.select.i = select i1 %21, i16 %22, i16 31745
  %spec.select12.i = select i1 %21, ptr %4, ptr %8
  br label %.sink.split.i

.sink.split.i:                                    ; preds = %19, %.split.i
  %phi.call.sink.i = phi i16 [ %18, %.split.i ], [ %spec.select.i, %19 ]
  %.0.ph.i = phi ptr [ %8, %.split.i ], [ %spec.select12.i, %19 ]
  store i16 %phi.call.sink.i, ptr %0, align 2
  br label %_ZN9relocInfo13finish_prefixEPs.exit

_ZN9relocInfo13finish_prefixEPs.exit:             ; preds = %10, %.sink.split.i
  %.0.i = phi ptr [ %0, %10 ], [ %.0.ph.i, %.sink.split.i ]
  store i16 %.sroa.0.0.copyload, ptr %.0.i, align 2
  %23 = getelementptr inbounds i8, ptr %.0.i, i64 2
  store ptr %23, ptr %5, align 8
  br label %24

24:                                               ; preds = %_ZN9relocInfo13finish_prefixEPs.exit, %3
  ret void
}